Certificate:
    Data:
        Version: 3 (0x2)
        Serial Number: 2 (0x2)
    Signature Algorithm: sha256WithRSAEncryption
        Issuer: C=US, ST=CA, L=SanFrancisco, O=Fort-Funston, OU=MyOrganizationalUnit, CN=Fort-Funston CA/name=server/emailAddress=me@myhost.mydomain
        Validity
            Not Before: Sep  7 11:09:32 2017 GMT
            Not After : Sep  5 11:09:32 2027 GMT
        Subject: C=US, ST=CA, L=SanFrancisco, O=Fort-Funston, OU=MyOrganizationalUnit, CN=client1/name=server/emailAddress=me@myhost.mydomain
        Subject Public Key Info:
            Public Key Algorithm: rsaEncryption
                Public-Key: (2048 bit)
                Modulus:
                    00:c0:5c:15:2d:97:54:ff:06:4e:f2:9a:cd:6f:1a:
                    15:4e:26:53:26:c9:fd:d2:8a:f3:36:c4:2f:23:22:
                    25:fb:ba:ad:28:3c:69:15:f8:08:a7:e7:0a:b7:1e:
                    5e:be:95:67:c2:3d:45:8b:61:26:3c:b9:d4:cf:d2:
                    a4:7c:d4:82:6c:9c:bc:a3:96:c1:94:48:48:6b:0e:
                    0b:44:30:58:b3:b7:cc:fb:ae:0c:b4:7e:ac:e8:56:
                    9b:e5:a8:d8:f6:9e:66:e8:7f:bf:a5:18:70:45:ed:
                    34:ee:2f:3d:6c:58:c8:44:59:a3:eb:3a:a5:f9:cb:
                    72:3d:4a:9e:22:00:14:cb:3c:1d:09:4b:8f:b6:63:
                    0c:cd:12:83:3b:71:29:2e:56:cf:8d:8f:6a:46:92:
                    6c:15:5f:3c:02:0a:d4:c2:09:80:31:2e:c7:c7:e1:
                    48:06:10:3f:af:62:4d:84:25:9e:f1:2c:8c:f3:cc:
                    08:9e:de:56:b4:7f:57:61:56:ae:17:bc:38:73:93:
                    39:42:cc:c7:a2:9f:ec:29:a5:b6:1e:83:e6:43:0b:
                    61:6d:4d:0a:0e:b5:af:68:b9:cc:38:bd:7e:8e:8b:
                    cc:f7:ef:0b:2a:9d:c0:98:0c:51:39:cf:48:a4:7f:
                    ba:ca:c5:ec:6d:b5:c5:9e:0d:14:9e:a2:c4:af:ea:
                    53:65
                Exponent: 65537 (0x10001)
        X509v3 extensions:
            X509v3 Basic Constraints: 
                CA:FALSE
            Netscape Comment: 
                Easy-RSA Generated Certificate
            X509v3 Subject Key Identifier: 
                F3:32:6B:9C:E5:9E:77:36:B5:DF:A9:7F:BA:1F:02:8F:61:17:47:DD
            X509v3 Authority Key Identifier: 
                keyid:F8:B1:F5:22:2C:8C:FA:1B:08:72:8E:08:EC:15:A7:DF:FA:FC:30:A8
                DirName:/C=US/ST=CA/L=SanFrancisco/O=Fort-Funston/OU=MyOrganizationalUnit/CN=Fort-Funston CA/name=server/emailAddress=me@myhost.mydomain
                serial:8B:CF:8D:CC:AE:B1:00:CF

            X509v3 Extended Key Usage: 
                TLS Web Client Authentication
            X509v3 Key Usage: 
                Digital Signature
            X509v3 Subject Alternative Name: 
                DNS:client1
    Signature Algorithm: sha256WithRSAEncryption
         27:3c:3a:85:2f:06:75:ff:02:15:bd:32:7e:78:01:28:1a:17:
         f8:c5:81:dd:b9:c3:b4:ed:d1:b5:f2:72:b0:1e:f4:80:a8:e9:
         e9:95:59:5e:b9:12:1a:d4:03:e5:61:d7:1e:9c:f0:01:06:f5:
         c9:a9:67:76:97:97:78:01:5f:f6:6a:4c:aa:54:55:71:f1:ea:
         96:2c:55:64:a2:5f:ae:2e:3b:27:f5:dc:4c:aa:86:74:23:59:
         db:8e:20:7f:f1:52:eb:a7:57:e0:b6:9b:40:c7:4e:6f:83:6d:
         e3:6a:be:94:f7:07:ad:67:85:68:2b:8e:62:9d:cf:5f:fb:89:
         08:0e:56:d6:c6:dd:63:00:32:6e:f7:1d:c4:88:65:cd:08:57:
         42:03:45:d5:fe:80:2d:24:9c:4a:94:98:fb:07:3d:42:04:9d:
         87:3a:07:6c:22:50:c8:ea:ab:8c:c5:2d:12:d7:a8:17:ab:db:
         87:83:22:e7:b3:22:be:3a:0a:08:06:0f:5e:f1:59:4d:d5:0f:
         53:0c:5a:bb:49:a8:90:f7:f4:17:de:74:6b:bc:5f:12:82:69:
         56:ff:8b:17:14:a5:2b:c0:74:99:23:86:c0:01:e0:a6:3b:04:
         a9:57:e2:74:d8:e3:e1:6a:a8:cd:8d:a7:36:e0:64:96:f4:96:
         0e:3a:18:68
-----BEGIN CERTIFICATE-----
MIIFYTCCBEmgAwIBAgIBAjANBgkqhkiG9w0BAQsFADCBtTELMAkGA1UEBhMCVVMx
CzAJBgNVBAgTAkNBMRUwEwYDVQQHEwxTYW5GcmFuY2lzY28xFTATBgNVBAoTDEZv
cnQtRnVuc3RvbjEdMBsGA1UECxMUTXlPcmdhbml6YXRpb25hbFVuaXQxGDAWBgNV
BAMTD0ZvcnQtRnVuc3RvbiBDQTEPMA0GA1UEKRMGc2VydmVyMSEwHwYJKoZIhvcN
AQkBFhJtZUBteWhvc3QubXlkb21haW4wHhcNMTcwOTA3MTEwOTMyWhcNMjcwOTA1
MTEwOTMyWjCBrTELMAkGA1UEBhMCVVMxCzAJBgNVBAgTAkNBMRUwEwYDVQQHEwxT
YW5GcmFuY2lzY28xFTATBgNVBAoTDEZvcnQtRnVuc3RvbjEdMBsGA1UECxMUTXlP
cmdhbml6YXRpb25hbFVuaXQxEDAOBgNVBAMTB2NsaWVudDExDzANBgNVBCkTBnNl
cnZlcjEhMB8GCSqGSIb3DQEJARYSbWVAbXlob3N0Lm15ZG9tYWluMIIBIjANBgkq
hkiG9w0BAQEFAAOCAQ8AMIIBCgKCAQEAwFwVLZdU/wZO8prNbxoVTiZTJsn90orz
NsQvIyIl+7qtKDxpFfgIp+cKtx5evpVnwj1Fi2EmPLnUz9KkfNSCbJy8o5bBlEhI
aw4LRDBYs7fM+64MtH6s6Fab5ajY9p5m6H+/pRhwRe007i89bFjIRFmj6zql+cty
PUqeIgAUyzwdCUuPtmMMzRKDO3EpLlbPjY9qRpJsFV88AgrUwgmAMS7Hx+FIBhA/
r2JNhCWe8SyM88wInt5WtH9XYVauF7w4c5M5QszHop/sKaW2HoPmQwthbU0KDrWv
aLnMOL1+jovM9+8LKp3AmAxROc9IpH+6ysXsbbXFng0UnqLEr+pTZQIDAQABo4IB
gDCCAXwwCQYDVR0TBAIwADAtBglghkgBhvhCAQ0EIBYeRWFzeS1SU0EgR2VuZXJh
dGVkIENlcnRpZmljYXRlMB0GA1UdDgQWBBTzMmuc5Z53NrXfqX+6HwKPYRdH3TCB
6gYDVR0jBIHiMIHfgBT4sfUiLIz6GwhyjgjsFaff+vwwqKGBu6SBuDCBtTELMAkG
A1UEBhMCVVMxCzAJBgNVBAgTAkNBMRUwEwYDVQQHEwxTYW5GcmFuY2lzY28xFTAT
BgNVBAoTDEZvcnQtRnVuc3RvbjEdMBsGA1UECxMUTXlPcmdhbml6YXRpb25hbFVu
aXQxGDAWBgNVBAMTD0ZvcnQtRnVuc3RvbiBDQTEPMA0GA1UEKRMGc2VydmVyMSEw
HwYJKoZIhvcNAQkBFhJtZUBteWhvc3QubXlkb21haW6CCQCLz43MrrEAzzATBgNV
HSUEDDAKBggrBgEFBQcDAjALBgNVHQ8EBAMCB4AwEgYDVR0RBAswCYIHY2xpZW50
MTANBgkqhkiG9w0BAQsFAAOCAQEAJzw6hS8Gdf8CFb0yfngBKBoX+MWB3bnDtO3R
tfJysB70gKjp6ZVZXrkSGtQD5WHXHpzwAQb1yalndpeXeAFf9mpMqlRVcfHqlixV
ZKJfri47J/XcTKqGdCNZ244gf/FS66dX4LabQMdOb4Nt42q+lPcHrWeFaCuOYp3P
X/uJCA5W1sbdYwAybvcdxIhlzQhXQgNF1f6ALSScSpSY+wc9QgSdhzoHbCJQyOqr
jMUtEteoF6vbh4Mi57MivjoKCAYPXvFZTdUPUwxau0mokPf0F950a7xfEoJpVv+L
FxSlK8B0mSOGwAHgpjsEqVfidNjj4WqozY2nNuBklvSWDjoYaA==
-----END CERTIFICATE-----
